; ModuleID = '7/916.c'
source_filename = "7/916.c"
target datalayout = "e-m:e-p270:32:32-p271:32:32-p272:64:64-i64:64-f80:128-n8:16:32:64-S128"
target triple = "x86_64-pc-linux-gnu"

@.str = private unnamed_addr constant [9 x i8] c"%s %s %s\00", align 1
@.str.1 = private unnamed_addr constant [3 x i8] c"%s\00", align 1

; Function Attrs: noinline nounwind uwtable
define dso_local i32 @main() #0 {
  %1 = alloca i32, align 4
  %2 = alloca [500 x i8], align 16
  %3 = alloca [500 x i8], align 16
  %4 = alloca [500 x [500 x i8]], align 16
  %5 = alloca [500 x i8], align 16
  %6 = alloca i32, align 4
  %7 = alloca i32, align 4
  %8 = alloca i32, align 4
  %9 = alloca i32, align 4
  %10 = alloca i32, align 4
  %11 = alloca i32, align 4
  store i32 0, i32* %1, align 4
  store i32 0, i32* %10, align 4
  %12 = getelementptr inbounds [500 x i8], [500 x i8]* %3, i64 0, i64 0
  %13 = getelementptr inbounds [500 x i8], [500 x i8]* %2, i64 0, i64 0
  %14 = getelementptr inbounds [500 x i8], [500 x i8]* %5, i64 0, i64 0
  %15 = call i32 (i8*, ...) @__isoc99_scanf(i8* getelementptr inbounds ([9 x i8], [9 x i8]* @.str, i64 0, i64 0), i8* %12, i8* %13, i8* %14)
  %16 = getelementptr inbounds [500 x i8], [500 x i8]* %3, i64 0, i64 0
  %17 = call i64 @strlen(i8* %16) #3
  %18 = trunc i64 %17 to i32
  store i32 %18, i32* %9, align 4
  %19 = getelementptr inbounds [500 x i8], [500 x i8]* %2, i64 0, i64 0
  %20 = call i64 @strlen(i8* %19) #3
  %21 = trunc i64 %20 to i32
  store i32 %21, i32* %8, align 4
  store i32 0, i32* %6, align 4
  br label %22

22:                                               ; preds = %60, %0
  %23 = load i32, i32* %6, align 4
  %24 = load i32, i32* %8, align 4
  %25 = add nsw i32 %23, %24
  %26 = sub nsw i32 %25, 1
  %27 = sext i32 %26 to i64
  %28 = getelementptr inbounds [500 x i8], [500 x i8]* %3, i64 0, i64 %27
  %29 = load i8, i8* %28, align 1
  %30 = sext i8 %29 to i32
  %31 = icmp ne i32 %30, 0
  br i1 %31, label %32, label %63

32:                                               ; preds = %22
  store i32 0, i32* %7, align 4
  br label %33

33:                                               ; preds = %50, %32
  %34 = load i32, i32* %7, align 4
  %35 = load i32, i32* %8, align 4
  %36 = icmp slt i32 %34, %35
  br i1 %36, label %37, label %53

37:                                               ; preds = %33
  %38 = load i32, i32* %6, align 4
  %39 = load i32, i32* %7, align 4
  %40 = add nsw i32 %38, %39
  %41 = sext i32 %40 to i64
  %42 = getelementptr inbounds [500 x i8], [500 x i8]* %3, i64 0, i64 %41
  %43 = load i8, i8* %42, align 1
  %44 = load i32, i32* %6, align 4
  %45 = sext i32 %44 to i64
  %46 = getelementptr inbounds [500 x [500 x i8]], [500 x [500 x i8]]* %4, i64 0, i64 %45
  %47 = load i32, i32* %7, align 4
  %48 = sext i32 %47 to i64
  %49 = getelementptr inbounds [500 x i8], [500 x i8]* %46, i64 0, i64 %48
  store i8 %43, i8* %49, align 1
  br label %50

50:                                               ; preds = %37
  %51 = load i32, i32* %7, align 4
  %52 = add nsw i32 %51, 1
  store i32 %52, i32* %7, align 4
  br label %33

53:                                               ; preds = %33
  %54 = load i32, i32* %6, align 4
  %55 = sext i32 %54 to i64
  %56 = getelementptr inbounds [500 x [500 x i8]], [500 x [500 x i8]]* %4, i64 0, i64 %55
  %57 = load i32, i32* %7, align 4
  %58 = sext i32 %57 to i64
  %59 = getelementptr inbounds [500 x i8], [500 x i8]* %56, i64 0, i64 %58
  store i8 0, i8* %59, align 1
  br label %60

60:                                               ; preds = %53
  %61 = load i32, i32* %6, align 4
  %62 = add nsw i32 %61, 1
  store i32 %62, i32* %6, align 4
  br label %22

63:                                               ; preds = %22
  store i32 0, i32* %6, align 4
  br label %64

64:                                               ; preds = %81, %63
  %65 = load i32, i32* %6, align 4
  %66 = load i32, i32* %9, align 4
  %67 = load i32, i32* %8, align 4
  %68 = sub nsw i32 %66, %67
  %69 = add nsw i32 %68, 1
  %70 = icmp slt i32 %65, %69
  br i1 %70, label %71, label %84

71:                                               ; preds = %64
  %72 = load i32, i32* %6, align 4
  %73 = sext i32 %72 to i64
  %74 = getelementptr inbounds [500 x [500 x i8]], [500 x [500 x i8]]* %4, i64 0, i64 %73
  %75 = getelementptr inbounds [500 x i8], [500 x i8]* %74, i64 0, i64 0
  %76 = getelementptr inbounds [500 x i8], [500 x i8]* %2, i64 0, i64 0
  %77 = call i32 @strcmp(i8* %75, i8* %76) #3
  %78 = icmp eq i32 %77, 0
  br i1 %78, label %79, label %80

79:                                               ; preds = %71
  store i32 1, i32* %10, align 4
  br label %84

80:                                               ; preds = %71
  br label %81

81:                                               ; preds = %80
  %82 = load i32, i32* %6, align 4
  %83 = add nsw i32 %82, 1
  store i32 %83, i32* %6, align 4
  br label %64

84:                                               ; preds = %79, %64
  %85 = load i32, i32* %6, align 4
  store i32 %85, i32* %11, align 4
  %86 = load i32, i32* %10, align 4
  %87 = icmp eq i32 %86, 1
  br i1 %87, label %88, label %109

88:                                               ; preds = %84
  store i32 0, i32* %6, align 4
  br label %89

89:                                               ; preds = %103, %88
  %90 = load i32, i32* %6, align 4
  %91 = load i32, i32* %8, align 4
  %92 = icmp slt i32 %90, %91
  br i1 %92, label %93, label %106

93:                                               ; preds = %89
  %94 = load i32, i32* %6, align 4
  %95 = sext i32 %94 to i64
  %96 = getelementptr inbounds [500 x i8], [500 x i8]* %5, i64 0, i64 %95
  %97 = load i8, i8* %96, align 1
  %98 = load i32, i32* %11, align 4
  %99 = load i32, i32* %6, align 4
  %100 = add nsw i32 %98, %99
  %101 = sext i32 %100 to i64
  %102 = getelementptr inbounds [500 x i8], [500 x i8]* %3, i64 0, i64 %101
  store i8 %97, i8* %102, align 1
  br label %103

103:                                              ; preds = %93
  %104 = load i32, i32* %6, align 4
  %105 = add nsw i32 %104, 1
  store i32 %105, i32* %6, align 4
  br label %89

106:                                              ; preds = %89
  %107 = getelementptr inbounds [500 x i8], [500 x i8]* %3, i64 0, i64 0
  %108 = call i32 (i8*, ...) @printf(i8* getelementptr inbounds ([3 x i8], [3 x i8]* @.str.1, i64 0, i64 0), i8* %107)
  br label %116

109:                                              ; preds = %84
  %110 = load i32, i32* %10, align 4
  %111 = icmp eq i32 %110, 0
  br i1 %111, label %112, label %115

112:                                              ; preds = %109
  %113 = getelementptr inbounds [500 x i8], [500 x i8]* %3, i64 0, i64 0
  %114 = call i32 (i8*, ...) @printf(i8* getelementptr inbounds ([3 x i8], [3 x i8]* @.str.1, i64 0, i64 0), i8* %113)
  br label %115

115:                                              ; preds = %112, %109
  br label %116

116:                                              ; preds = %115, %106
  ret i32 0
}

declare dso_local i32 @__isoc99_scanf(i8*, ...) #1

; Function Attrs: nounwind readonly
declare dso_local i64 @strlen(i8*) #2

; Function Attrs: nounwind readonly
declare dso_local i32 @strcmp(i8*, i8*) #2

declare dso_local i32 @printf(i8*, ...) #1


!llvm.module.flags = !{!0}
!llvm.ident = !{!1}

!0 = !{i32 1, !"wchar_size", i32 4}
!1 = !{!"clang version 10.0.0-4ubuntu1 "}
